; Function Attrs: mustprogress nofree norecurse nosync nounwind willreturn memory(argmem: read) uwtable
define hidden noundef zeroext i1 @_ZNK4cvc58internal11LazyCDProof13hasGeneratorsEv(ptr nocapture noundef nonnull readonly align 8 dereferenceable(408) %this) local_unnamed_addr #8 align 2 {
entry:
  %_M_element_count.i.i.i.i = getelementptr inbounds i8, ptr %this, i64 288
  %0 = load i64, ptr %_M_element_count.i.i.i.i, align 8
  %cmp.i.i.i = icmp ne i64 %0, 0
  %d_defaultGen = getelementptr inbounds i8, ptr %this, i64 336
  %1 = load ptr, ptr %d_defaultGen, align 8
  %cmp = icmp ne ptr %1, null
  %2 = select i1 %cmp.i.i.i, i1 true, i1 %cmp
  ret i1 %2
}